; Function Attrs: mustprogress uwtable
define void @_ZNK2cv9SparseMat8assignToERS0_i(ptr noundef nonnull align 8 dereferenceable(16) %0, ptr noundef nonnull align 8 dereferenceable(16) %1, i32 noundef %2) local_unnamed_addr #0 align 2 personality ptr @__gxx_personality_v0 {
  %4 = icmp slt i32 %2, 0
  br i1 %4, label %5, label %29

5:                                                ; preds = %3
  %.not.i = icmp eq ptr %1, %0
  br i1 %.not.i, label %_ZN2cv9SparseMataSERKS0_.exit, label %6

6:                                                ; preds = %5
  %7 = getelementptr inbounds nuw i8, ptr %0, i64 8
  %8 = load ptr, ptr %7, align 8, !tbaa !36
  %.not8.i = icmp eq ptr %8, null
  br i1 %.not8.i, label %11, label %9

9:                                                ; preds = %6
  %10 = atomicrmw add ptr %8, i32 1 acq_rel, align 8
  br label %11

11:                                               ; preds = %9, %6
  %12 = getelementptr inbounds nuw i8, ptr %1, i64 8
  %13 = load ptr, ptr %12, align 8, !tbaa !36
  %.not.i.i = icmp eq ptr %13, null
  br i1 %.not.i.i, label %_ZN2cv9SparseMat7releaseEv.exit.i, label %14

14:                                               ; preds = %11
  %15 = atomicrmw add ptr %13, i32 -1 acq_rel, align 8
  %16 = icmp eq i32 %15, 1
  br i1 %16, label %17, label %_ZN2cv9SparseMat7releaseEv.exit.i

17:                                               ; preds = %14
  %18 = load ptr, ptr %12, align 8, !tbaa !36
  %19 = icmp eq ptr %18, null
  br i1 %19, label %_ZN2cv9SparseMat7releaseEv.exit.i, label %20

20:                                               ; preds = %17
  %21 = getelementptr inbounds nuw i8, ptr %18, i64 64
  %22 = load ptr, ptr %21, align 8, !tbaa !26
  %.not.i.i.i.i.i.i = icmp eq ptr %22, null
  br i1 %.not.i.i.i.i.i.i, label %_ZNSt6vectorImSaImEED2Ev.exit.i.i.i, label %23

23:                                               ; preds = %20
  tail call void @_ZdlPv(ptr noundef nonnull %22) #24
  br label %_ZNSt6vectorImSaImEED2Ev.exit.i.i.i

_ZNSt6vectorImSaImEED2Ev.exit.i.i.i:              ; preds = %23, %20
  %24 = getelementptr inbounds nuw i8, ptr %18, i64 40
  %25 = load ptr, ptr %24, align 8, !tbaa !29
  %.not.i.i.i1.i.i.i = icmp eq ptr %25, null
  br i1 %.not.i.i.i1.i.i.i, label %_ZN2cv9SparseMat3HdrD2Ev.exit.i.i, label %26

26:                                               ; preds = %_ZNSt6vectorImSaImEED2Ev.exit.i.i.i
  tail call void @_ZdlPv(ptr noundef nonnull %25) #24
  br label %_ZN2cv9SparseMat3HdrD2Ev.exit.i.i

_ZN2cv9SparseMat3HdrD2Ev.exit.i.i:                ; preds = %26, %_ZNSt6vectorImSaImEED2Ev.exit.i.i.i
  tail call void @_ZdlPv(ptr noundef nonnull %18) #24
  br label %_ZN2cv9SparseMat7releaseEv.exit.i

_ZN2cv9SparseMat7releaseEv.exit.i:                ; preds = %_ZN2cv9SparseMat3HdrD2Ev.exit.i.i, %17, %14, %11
  store ptr null, ptr %12, align 8, !tbaa !36
  %27 = load i32, ptr %0, align 8, !tbaa !33
  store i32 %27, ptr %1, align 8, !tbaa !33
  %28 = load ptr, ptr %7, align 8, !tbaa !36
  store ptr %28, ptr %12, align 8, !tbaa !36
  br label %_ZN2cv9SparseMataSERKS0_.exit

29:                                               ; preds = %3
  tail call void @_ZNK2cv9SparseMat9convertToERS0_id(ptr noundef nonnull align 8 dereferenceable(16) %0, ptr noundef nonnull align 8 dereferenceable(16) %1, i32 noundef %2, double noundef 1.000000e+00)
  br label %_ZN2cv9SparseMataSERKS0_.exit

_ZN2cv9SparseMataSERKS0_.exit:                    ; preds = %_ZN2cv9SparseMat7releaseEv.exit.i, %5, %29
  ret void
}